target datalayout = "e-m:e-p270:32:32-p271:32:32-p272:64:64-i64:64-i128:128-f80:128-n8:16:32:64-S128"
target triple = "x86_64-pc-linux-gnu"

%struct.AVTXContext = type { i32, i32, ptr, ptr, ptr, ptr, [4 x ptr], i32, [4 x ptr], ptr, i32, i64, i32, float, double, ptr }

; Function Attrs: alwaysinline nounwind willreturn memory(none) uwtable
define internal i64 @av_clip64_c(i64 noundef %0, i64 noundef %1, i64 noundef %2) #2 {
  %4 = alloca i64, align 8
  %5 = alloca i64, align 8
  %6 = alloca i64, align 8
  %7 = alloca i64, align 8
  store i64 %0, ptr %5, align 8, !tbaa !30
  store i64 %1, ptr %6, align 8, !tbaa !30
  store i64 %2, ptr %7, align 8, !tbaa !30
  %8 = load i64, ptr %5, align 8, !tbaa !30
  %9 = load i64, ptr %6, align 8, !tbaa !30
  %10 = icmp slt i64 %8, %9
  br i1 %10, label %11, label %13

11:                                               ; preds = %3
  %12 = load i64, ptr %6, align 8, !tbaa !30
  store i64 %12, ptr %4, align 8
  br label %21

13:                                               ; preds = %3
  %14 = load i64, ptr %5, align 8, !tbaa !30
  %15 = load i64, ptr %7, align 8, !tbaa !30
  %16 = icmp sgt i64 %14, %15
  br i1 %16, label %17, label %19

17:                                               ; preds = %13
  %18 = load i64, ptr %7, align 8, !tbaa !30
  store i64 %18, ptr %4, align 8
  br label %21

19:                                               ; preds = %13
  %20 = load i64, ptr %5, align 8, !tbaa !30
  store i64 %20, ptr %4, align 8
  br label %21

21:                                               ; preds = %19, %17, %11
  %22 = load i64, ptr %4, align 8
  ret i64 %22
}

; Function Attrs: cold nounwind optsize uwtable
define internal i32 @ff_tx_rdft_init_int32_c(ptr noundef %0, ptr noundef %1, i64 noundef %2, ptr noundef %3, i32 noundef %4, i32 noundef %5, ptr noundef %6) #0 {
  %8 = alloca i32, align 4
  %9 = alloca ptr, align 8
  %10 = alloca ptr, align 8
  %11 = alloca i64, align 8
  %12 = alloca ptr, align 8
  %13 = alloca i32, align 4
  %14 = alloca i32, align 4
  %15 = alloca ptr, align 8
  %16 = alloca i32, align 4
  %17 = alloca double, align 8
  %18 = alloca double, align 8
  %19 = alloca ptr, align 8
  %20 = alloca i64, align 8
  %21 = alloca i32, align 4
  %22 = alloca i32, align 4
  %23 = alloca i32, align 4
  %24 = alloca i32, align 4
  store ptr %0, ptr %9, align 8, !tbaa !17
  store ptr %1, ptr %10, align 8, !tbaa !58
  store i64 %2, ptr %11, align 8, !tbaa !30
  store ptr %3, ptr %12, align 8, !tbaa !59
  store i32 %4, ptr %13, align 4, !tbaa !4
  store i32 %5, ptr %14, align 4, !tbaa !4
  store ptr %6, ptr %15, align 8, !tbaa !8
  call void @llvm.lifetime.start.p0(i64 4, ptr %16) #10
  call void @llvm.lifetime.start.p0(i64 8, ptr %17) #10
  call void @llvm.lifetime.start.p0(i64 8, ptr %18) #10
  call void @llvm.lifetime.start.p0(i64 8, ptr %19) #10
  call void @llvm.lifetime.start.p0(i64 8, ptr %20) #10
  %25 = load i64, ptr %11, align 8, !tbaa !30
  %26 = and i64 %25, 8
  store i64 %26, ptr %20, align 8, !tbaa !30
  call void @llvm.lifetime.start.p0(i64 4, ptr %21) #10
  %27 = load i32, ptr %13, align 4, !tbaa !4
  %28 = add nsw i32 %27, 4
  %29 = sub nsw i32 %28, 1
  %30 = and i32 %29, -4
  %31 = sdiv i32 %30, 4
  store i32 %31, ptr %21, align 4, !tbaa !4
  %32 = load ptr, ptr %15, align 8, !tbaa !8
  %33 = load float, ptr %32, align 4, !tbaa !91
  %34 = fpext nsz float %33 to double
  %35 = load ptr, ptr %9, align 8, !tbaa !17
  %36 = getelementptr inbounds nuw %struct.AVTXContext, ptr %35, i32 0, i32 14
  store double %34, ptr %36, align 8, !tbaa !28
  %37 = load ptr, ptr %9, align 8, !tbaa !17
  %38 = getelementptr inbounds nuw %struct.AVTXContext, ptr %37, i32 0, i32 14
  %39 = load double, ptr %38, align 8, !tbaa !28
  %40 = fptrunc nsz double %39 to float
  %41 = load ptr, ptr %9, align 8, !tbaa !17
  %42 = getelementptr inbounds nuw %struct.AVTXContext, ptr %41, i32 0, i32 13
  store float %40, ptr %42, align 4, !tbaa !92
  %43 = load i64, ptr %11, align 8, !tbaa !30
  %44 = and i64 %43, -25
  store i64 %44, ptr %11, align 8, !tbaa !30
  %45 = load ptr, ptr %9, align 8, !tbaa !17
  %46 = load i64, ptr %11, align 8, !tbaa !30
  %47 = load i32, ptr %13, align 4, !tbaa !4
  %48 = ashr i32 %47, 1
  %49 = load i32, ptr %14, align 4, !tbaa !4
  %50 = load ptr, ptr %15, align 8, !tbaa !8
  %51 = call i32 @ff_tx_init_subtx(ptr noundef %45, i32 noundef 4, i64 noundef %46, ptr noundef null, i32 noundef %48, i32 noundef %49, ptr noundef %50)
  store i32 %51, ptr %16, align 4, !tbaa !4
  %52 = icmp ne i32 %51, 0
  br i1 %52, label %53, label %55

53:                                               ; preds = %7
  %54 = load i32, ptr %16, align 4, !tbaa !4
  store i32 %54, ptr %8, align 4
  store i32 1, ptr %22, align 4
  br label %247

55:                                               ; preds = %7
  %56 = load i32, ptr %21, align 4, !tbaa !4
  %57 = mul nsw i32 2, %56
  %58 = add nsw i32 8, %57
  %59 = sext i32 %58 to i64
  %60 = mul i64 %59, 8
  %61 = call noalias ptr @av_mallocz(i64 noundef %60)
  %62 = load ptr, ptr %9, align 8, !tbaa !17
  %63 = getelementptr inbounds nuw %struct.AVTXContext, ptr %62, i32 0, i32 3
  store ptr %61, ptr %63, align 8, !tbaa !31
  %64 = icmp ne ptr %61, null
  br i1 %64, label %66, label %65

65:                                               ; preds = %55
  store i32 -12, ptr %8, align 4
  store i32 1, ptr %22, align 4
  br label %247

66:                                               ; preds = %55
  %67 = load ptr, ptr %9, align 8, !tbaa !17
  %68 = getelementptr inbounds nuw %struct.AVTXContext, ptr %67, i32 0, i32 3
  %69 = load ptr, ptr %68, align 8, !tbaa !31
  store ptr %69, ptr %19, align 8, !tbaa !19
  %70 = load i32, ptr %13, align 4, !tbaa !4
  %71 = sitofp i32 %70 to double
  %72 = fdiv nsz double 0x401921FB54442D18, %71
  store double %72, ptr %17, align 8, !tbaa !29
  %73 = load i32, ptr %14, align 4, !tbaa !4
  %74 = icmp ne i32 %73, 0
  br i1 %74, label %75, label %80

75:                                               ; preds = %66
  %76 = load ptr, ptr %9, align 8, !tbaa !17
  %77 = getelementptr inbounds nuw %struct.AVTXContext, ptr %76, i32 0, i32 14
  %78 = load double, ptr %77, align 8, !tbaa !28
  %79 = fmul nsz double 2.000000e+00, %78
  br label %84

80:                                               ; preds = %66
  %81 = load ptr, ptr %9, align 8, !tbaa !17
  %82 = getelementptr inbounds nuw %struct.AVTXContext, ptr %81, i32 0, i32 14
  %83 = load double, ptr %82, align 8, !tbaa !28
  br label %84

84:                                               ; preds = %80, %75
  %85 = phi nsz double [ %79, %75 ], [ %83, %80 ]
  store double %85, ptr %18, align 8, !tbaa !29
  %86 = load i32, ptr %14, align 4, !tbaa !4
  %87 = icmp ne i32 %86, 0
  %88 = select nsz i1 %87, double 5.000000e-01, double 1.000000e+00
  %89 = load double, ptr %18, align 8, !tbaa !29
  %90 = fmul nsz double %88, %89
  %91 = fmul nsz double %90, 0x41E0000000000000
  %92 = fptrunc nsz double %91 to float
  %93 = call i64 @llvm.llrint.i64.f32(float %92)
  %94 = call i64 @av_clip64_c(i64 noundef %93, i64 noundef -2147483648, i64 noundef 2147483647) #11
  %95 = trunc i64 %94 to i32
  %96 = load ptr, ptr %19, align 8, !tbaa !19
  %97 = getelementptr inbounds nuw i32, ptr %96, i32 1
  store ptr %97, ptr %19, align 8, !tbaa !19
  store i32 %95, ptr %96, align 4, !tbaa !4
  %98 = load i32, ptr %14, align 4, !tbaa !4
  %99 = icmp ne i32 %98, 0
  br i1 %99, label %100, label %103

100:                                              ; preds = %84
  %101 = load double, ptr %18, align 8, !tbaa !29
  %102 = fmul nsz double 5.000000e-01, %101
  br label %106

103:                                              ; preds = %84
  %104 = load double, ptr %18, align 8, !tbaa !29
  %105 = fmul nsz double 1.000000e+00, %104
  br label %106

106:                                              ; preds = %103, %100
  %107 = phi nsz double [ %102, %100 ], [ %105, %103 ]
  %108 = fmul nsz double %107, 0x41E0000000000000
  %109 = fptrunc nsz double %108 to float
  %110 = call i64 @llvm.llrint.i64.f32(float %109)
  %111 = call i64 @av_clip64_c(i64 noundef %110, i64 noundef -2147483648, i64 noundef 2147483647) #11
  %112 = trunc i64 %111 to i32
  %113 = load ptr, ptr %19, align 8, !tbaa !19
  %114 = getelementptr inbounds nuw i32, ptr %113, i32 1
  store ptr %114, ptr %19, align 8, !tbaa !19
  store i32 %112, ptr %113, align 4, !tbaa !4
  %115 = load double, ptr %18, align 8, !tbaa !29
  %116 = fmul nsz double %115, 0x41E0000000000000
  %117 = fptrunc nsz double %116 to float
  %118 = call i64 @llvm.llrint.i64.f32(float %117)
  %119 = call i64 @av_clip64_c(i64 noundef %118, i64 noundef -2147483648, i64 noundef 2147483647) #11
  %120 = trunc i64 %119 to i32
  %121 = load ptr, ptr %19, align 8, !tbaa !19
  %122 = getelementptr inbounds nuw i32, ptr %121, i32 1
  store ptr %122, ptr %19, align 8, !tbaa !19
  store i32 %120, ptr %121, align 4, !tbaa !4
  %123 = load double, ptr %18, align 8, !tbaa !29
  %124 = fneg nsz double %123
  %125 = fmul nsz double %124, 0x41E0000000000000
  %126 = fptrunc nsz double %125 to float
  %127 = call i64 @llvm.llrint.i64.f32(float %126)
  %128 = call i64 @av_clip64_c(i64 noundef %127, i64 noundef -2147483648, i64 noundef 2147483647) #11
  %129 = trunc i64 %128 to i32
  %130 = load ptr, ptr %19, align 8, !tbaa !19
  %131 = getelementptr inbounds nuw i32, ptr %130, i32 1
  store ptr %131, ptr %19, align 8, !tbaa !19
  store i32 %129, ptr %130, align 4, !tbaa !4
  %132 = load double, ptr %18, align 8, !tbaa !29
  %133 = fmul nsz double 5.000000e-01, %132
  %134 = fmul nsz double %133, 0x41E0000000000000
  %135 = fptrunc nsz double %134 to float
  %136 = call i64 @llvm.llrint.i64.f32(float %135)
  %137 = call i64 @av_clip64_c(i64 noundef %136, i64 noundef -2147483648, i64 noundef 2147483647) #11
  %138 = trunc i64 %137 to i32
  %139 = load ptr, ptr %19, align 8, !tbaa !19
  %140 = getelementptr inbounds nuw i32, ptr %139, i32 1
  store ptr %140, ptr %19, align 8, !tbaa !19
  store i32 %138, ptr %139, align 4, !tbaa !4
  %141 = load i64, ptr %20, align 8, !tbaa !30
  %142 = icmp ne i64 %141, 0
  br i1 %142, label %143, label %151

143:                                              ; preds = %106
  %144 = load ptr, ptr %9, align 8, !tbaa !17
  %145 = getelementptr inbounds nuw %struct.AVTXContext, ptr %144, i32 0, i32 13
  %146 = load float, ptr %145, align 4, !tbaa !92
  %147 = fdiv nsz float 1.000000e+00, %146
  %148 = fptosi float %147 to i32
  %149 = load ptr, ptr %19, align 8, !tbaa !19
  %150 = getelementptr inbounds nuw i32, ptr %149, i32 1
  store ptr %150, ptr %19, align 8, !tbaa !19
  store i32 %148, ptr %149, align 4, !tbaa !4
  br label %161

151:                                              ; preds = %106
  %152 = load double, ptr %18, align 8, !tbaa !29
  %153 = fmul nsz double -5.000000e-01, %152
  %154 = fmul nsz double %153, 0x41E0000000000000
  %155 = fptrunc nsz double %154 to float
  %156 = call i64 @llvm.llrint.i64.f32(float %155)
  %157 = call i64 @av_clip64_c(i64 noundef %156, i64 noundef -2147483648, i64 noundef 2147483647) #11
  %158 = trunc i64 %157 to i32
  %159 = load ptr, ptr %19, align 8, !tbaa !19
  %160 = getelementptr inbounds nuw i32, ptr %159, i32 1
  store ptr %160, ptr %19, align 8, !tbaa !19
  store i32 %158, ptr %159, align 4, !tbaa !4
  br label %161

161:                                              ; preds = %151, %143
  %162 = load i32, ptr %14, align 4, !tbaa !4
  %163 = sitofp i32 %162 to double
  %164 = fsub nsz double 5.000000e-01, %163
  %165 = load double, ptr %18, align 8, !tbaa !29
  %166 = fmul nsz double %164, %165
  %167 = fmul nsz double %166, 0x41E0000000000000
  %168 = fptrunc nsz double %167 to float
  %169 = call i64 @llvm.llrint.i64.f32(float %168)
  %170 = call i64 @av_clip64_c(i64 noundef %169, i64 noundef -2147483648, i64 noundef 2147483647) #11
  %171 = trunc i64 %170 to i32
  %172 = load ptr, ptr %19, align 8, !tbaa !19
  %173 = getelementptr inbounds nuw i32, ptr %172, i32 1
  store ptr %173, ptr %19, align 8, !tbaa !19
  store i32 %171, ptr %172, align 4, !tbaa !4
  %174 = load i32, ptr %14, align 4, !tbaa !4
  %175 = sitofp i32 %174 to double
  %176 = fsub nsz double 5.000000e-01, %175
  %177 = fneg nsz double %176
  %178 = load double, ptr %18, align 8, !tbaa !29
  %179 = fmul nsz double %177, %178
  %180 = fmul nsz double %179, 0x41E0000000000000
  %181 = fptrunc nsz double %180 to float
  %182 = call i64 @llvm.llrint.i64.f32(float %181)
  %183 = call i64 @av_clip64_c(i64 noundef %182, i64 noundef -2147483648, i64 noundef 2147483647) #11
  %184 = trunc i64 %183 to i32
  %185 = load ptr, ptr %19, align 8, !tbaa !19
  %186 = getelementptr inbounds nuw i32, ptr %185, i32 1
  store ptr %186, ptr %19, align 8, !tbaa !19
  store i32 %184, ptr %185, align 4, !tbaa !4
  call void @llvm.lifetime.start.p0(i64 4, ptr %23) #10
  store i32 0, ptr %23, align 4, !tbaa !4
  br label %187

187:                                              ; preds = %205, %161
  %188 = load i32, ptr %23, align 4, !tbaa !4
  %189 = load i32, ptr %21, align 4, !tbaa !4
  %190 = icmp slt i32 %188, %189
  br i1 %190, label %192, label %191

191:                                              ; preds = %187
  store i32 2, ptr %22, align 4
  call void @llvm.lifetime.end.p0(i64 4, ptr %23) #10
  br label %208

192:                                              ; preds = %187
  %193 = load i32, ptr %23, align 4, !tbaa !4
  %194 = sitofp i32 %193 to double
  %195 = load double, ptr %17, align 8, !tbaa !29
  %196 = fmul nsz double %194, %195
  %197 = call nsz double @llvm.cos.f64(double %196)
  %198 = fmul nsz double %197, 0x41E0000000000000
  %199 = fptrunc nsz double %198 to float
  %200 = call i64 @llvm.llrint.i64.f32(float %199)
  %201 = call i64 @av_clip64_c(i64 noundef %200, i64 noundef -2147483648, i64 noundef 2147483647) #11
  %202 = trunc i64 %201 to i32
  %203 = load ptr, ptr %19, align 8, !tbaa !19
  %204 = getelementptr inbounds nuw i32, ptr %203, i32 1
  store ptr %204, ptr %19, align 8, !tbaa !19
  store i32 %202, ptr %203, align 4, !tbaa !4
  br label %205

205:                                              ; preds = %192
  %206 = load i32, ptr %23, align 4, !tbaa !4
  %207 = add nsw i32 %206, 1
  store i32 %207, ptr %23, align 4, !tbaa !4
  br label %187, !llvm.loop !147

208:                                              ; preds = %191
  %209 = load ptr, ptr %9, align 8, !tbaa !17
  %210 = getelementptr inbounds nuw %struct.AVTXContext, ptr %209, i32 0, i32 3
  %211 = load ptr, ptr %210, align 8, !tbaa !31
  %212 = load i32, ptr %21, align 4, !tbaa !4
  %213 = sext i32 %212 to i64
  %214 = getelementptr inbounds i32, ptr %211, i64 %213
  %215 = getelementptr inbounds i32, ptr %214, i64 8
  store ptr %215, ptr %19, align 8, !tbaa !19
  call void @llvm.lifetime.start.p0(i64 4, ptr %24) #10
  store i32 0, ptr %24, align 4, !tbaa !4
  br label %216

216:                                              ; preds = %243, %208
  %217 = load i32, ptr %24, align 4, !tbaa !4
  %218 = load i32, ptr %21, align 4, !tbaa !4
  %219 = icmp slt i32 %217, %218
  br i1 %219, label %221, label %220

220:                                              ; preds = %216
  store i32 5, ptr %22, align 4
  call void @llvm.lifetime.end.p0(i64 4, ptr %24) #10
  br label %246

221:                                              ; preds = %216
  %222 = load i32, ptr %13, align 4, !tbaa !4
  %223 = load i32, ptr %24, align 4, !tbaa !4
  %224 = mul nsw i32 %223, 4
  %225 = sub nsw i32 %222, %224
  %226 = sitofp i32 %225 to double
  %227 = fdiv nsz double %226, 4.000000e+00
  %228 = load double, ptr %17, align 8, !tbaa !29
  %229 = fmul nsz double %227, %228
  %230 = call nsz double @llvm.cos.f64(double %229)
  %231 = fmul nsz double %230, 0x41E0000000000000
  %232 = fptrunc nsz double %231 to float
  %233 = call i64 @llvm.llrint.i64.f32(float %232)
  %234 = call i64 @av_clip64_c(i64 noundef %233, i64 noundef -2147483648, i64 noundef 2147483647) #11
  %235 = load i32, ptr %14, align 4, !tbaa !4
  %236 = icmp ne i32 %235, 0
  %237 = select i1 %236, i32 1, i32 -1
  %238 = sext i32 %237 to i64
  %239 = mul nsw i64 %234, %238
  %240 = trunc i64 %239 to i32
  %241 = load ptr, ptr %19, align 8, !tbaa !19
  %242 = getelementptr inbounds nuw i32, ptr %241, i32 1
  store ptr %242, ptr %19, align 8, !tbaa !19
  store i32 %240, ptr %241, align 4, !tbaa !4
  br label %243

243:                                              ; preds = %221
  %244 = load i32, ptr %24, align 4, !tbaa !4
  %245 = add nsw i32 %244, 1
  store i32 %245, ptr %24, align 4, !tbaa !4
  br label %216, !llvm.loop !148

246:                                              ; preds = %220
  store i32 0, ptr %8, align 4
  store i32 1, ptr %22, align 4
  br label %247

247:                                              ; preds = %246, %65, %53
  call void @llvm.lifetime.end.p0(i64 4, ptr %21) #10
  call void @llvm.lifetime.end.p0(i64 8, ptr %20) #10
  call void @llvm.lifetime.end.p0(i64 8, ptr %19) #10
  call void @llvm.lifetime.end.p0(i64 8, ptr %18) #10
  call void @llvm.lifetime.end.p0(i64 8, ptr %17) #10
  call void @llvm.lifetime.end.p0(i64 4, ptr %16) #10
  %248 = load i32, ptr %8, align 4
  ret i32 %248
}