; Function Attrs: cold nounwind optsize uwtable
define internal i32 @ff_tx_rdft_init_int32_c(ptr noundef initializes((140, 152)) %0, ptr readnone captures(none) %1, i64 noundef %2, ptr readnone captures(none) %3, i32 noundef %4, i32 noundef %5, ptr noundef %6) #0 {
  %8 = and i64 %2, 8
  %9 = add nsw i32 %4, 3
  %10 = ashr i32 %9, 2
  %11 = load float, ptr %6, align 4, !tbaa !82
  %12 = fpext nsz float %11 to double
  %13 = getelementptr inbounds nuw i8, ptr %0, i64 144
  store double %12, ptr %13, align 8, !tbaa !25
  %14 = getelementptr inbounds nuw i8, ptr %0, i64 140
  store float %11, ptr %14, align 4, !tbaa !83
  %15 = and i64 %2, -25
  %16 = ashr i32 %4, 1
  %17 = tail call i32 @ff_tx_init_subtx(ptr noundef %0, i32 noundef 4, i64 noundef %15, ptr noundef null, i32 noundef %16, i32 noundef %5, ptr noundef nonnull %6) #16
  %.not = icmp eq i32 %17, 0
  br i1 %.not, label %18, label %.loopexit

18:                                               ; preds = %7
  %19 = shl nsw i32 %10, 1
  %20 = add nsw i32 %19, 8
  %21 = sext i32 %20 to i64
  %22 = shl nsw i64 %21, 3
  %23 = tail call noalias ptr @av_mallocz(i64 noundef %22) #16
  %24 = getelementptr inbounds nuw i8, ptr %0, i64 16
  store ptr %23, ptr %24, align 8, !tbaa !26
  %.not66 = icmp eq ptr %23, null
  br i1 %.not66, label %.loopexit, label %25

25:                                               ; preds = %18
  %26 = sitofp i32 %4 to double
  %27 = fdiv nsz double 0x401921FB54442D18, %26
  %.not67 = icmp eq i32 %5, 0
  %28 = load double, ptr %13, align 8, !tbaa !25
  %29 = fmul nsz double %28, 2.000000e+00
  %30 = select i1 %.not67, double 1.000000e+00, double 5.000000e-01
  %31 = select nsz i1 %.not67, double %28, double %29
  %32 = fmul nsz double %30, %31
  %33 = fmul nsz double %32, 0x41E0000000000000
  %34 = fptrunc nsz double %33 to float
  %35 = tail call i64 @llvm.llrint.i64.f32(float %34)
  %36 = tail call i64 @llvm.smax.i64(i64 %35, i64 -2147483648)
  %.0.i86 = tail call i64 @llvm.smin.i64(i64 %36, i64 2147483647)
  %37 = trunc nsw i64 %.0.i86 to i32
  %38 = getelementptr inbounds nuw i8, ptr %23, i64 4
  store i32 %37, ptr %23, align 4, !tbaa !10
  %39 = fmul nsz double %31, 5.000000e-01
  %40 = select nsz i1 %.not67, double %28, double %39
  %41 = fmul nsz double %40, 0x41E0000000000000
  %42 = fptrunc nsz double %41 to float
  %43 = tail call i64 @llvm.llrint.i64.f32(float %42)
  %44 = tail call i64 @llvm.smax.i64(i64 %43, i64 -2147483648)
  %.0.i84 = tail call i64 @llvm.smin.i64(i64 %44, i64 2147483647)
  %45 = trunc nsw i64 %.0.i84 to i32
  %46 = getelementptr inbounds nuw i8, ptr %23, i64 8
  store i32 %45, ptr %38, align 4, !tbaa !10
  %47 = fmul nsz double %31, 0x41E0000000000000
  %48 = fptrunc nsz double %47 to float
  %49 = tail call i64 @llvm.llrint.i64.f32(float %48)
  %50 = tail call i64 @llvm.smax.i64(i64 %49, i64 -2147483648)
  %.0.i82 = tail call i64 @llvm.smin.i64(i64 %50, i64 2147483647)
  %51 = trunc nsw i64 %.0.i82 to i32
  %52 = getelementptr inbounds nuw i8, ptr %23, i64 12
  store i32 %51, ptr %46, align 4, !tbaa !10
  %53 = fmul nsz double %31, 0xC1E0000000000000
  %54 = fptrunc nsz double %53 to float
  %55 = tail call i64 @llvm.llrint.i64.f32(float %54)
  %56 = tail call i64 @llvm.smax.i64(i64 %55, i64 -2147483648)
  %.0.i80 = tail call i64 @llvm.smin.i64(i64 %56, i64 2147483647)
  %57 = trunc nsw i64 %.0.i80 to i32
  %58 = getelementptr inbounds nuw i8, ptr %23, i64 16
  store i32 %57, ptr %52, align 4, !tbaa !10
  %59 = fmul nsz double %39, 0x41E0000000000000
  %60 = fptrunc nsz double %59 to float
  %61 = tail call i64 @llvm.llrint.i64.f32(float %60)
  %62 = tail call i64 @llvm.smax.i64(i64 %61, i64 -2147483648)
  %.0.i78 = tail call i64 @llvm.smin.i64(i64 %62, i64 2147483647)
  %63 = trunc nsw i64 %.0.i78 to i32
  %64 = getelementptr inbounds nuw i8, ptr %23, i64 20
  store i32 %63, ptr %58, align 4, !tbaa !10
  %.not68 = icmp eq i64 %8, 0
  br i1 %.not68, label %69, label %65

65:                                               ; preds = %25
  %66 = load float, ptr %14, align 4, !tbaa !83
  %67 = fdiv nsz float 1.000000e+00, %66
  %68 = fptosi float %67 to i32
  br label %76

69:                                               ; preds = %25
  %70 = fmul nsz double %31, -5.000000e-01
  %71 = fmul nsz double %70, 0x41E0000000000000
  %72 = fptrunc nsz double %71 to float
  %73 = tail call i64 @llvm.llrint.i64.f32(float %72)
  %74 = tail call i64 @llvm.smax.i64(i64 %73, i64 -2147483648)
  %.0.i76 = tail call i64 @llvm.smin.i64(i64 %74, i64 2147483647)
  %75 = trunc nsw i64 %.0.i76 to i32
  br label %76

76:                                               ; preds = %69, %65
  %storemerge = phi i32 [ %75, %69 ], [ %68, %65 ]
  %.062 = getelementptr inbounds nuw i8, ptr %23, i64 24
  store i32 %storemerge, ptr %64, align 4, !tbaa !10
  %77 = sitofp i32 %5 to double
  %78 = fsub nsz double 5.000000e-01, %77
  %79 = fmul nsz double %78, %31
  %80 = fmul nsz double %79, 0x41E0000000000000
  %81 = fptrunc nsz double %80 to float
  %82 = tail call i64 @llvm.llrint.i64.f32(float %81)
  %83 = tail call i64 @llvm.smax.i64(i64 %82, i64 -2147483648)
  %.0.i74 = tail call i64 @llvm.smin.i64(i64 %83, i64 2147483647)
  %84 = trunc nsw i64 %.0.i74 to i32
  %85 = getelementptr inbounds nuw i8, ptr %23, i64 28
  store i32 %84, ptr %.062, align 4, !tbaa !10
  %86 = fneg nsz double %78
  %87 = fmul nsz double %31, %86
  %88 = fmul nsz double %87, 0x41E0000000000000
  %89 = fptrunc nsz double %88 to float
  %90 = tail call i64 @llvm.llrint.i64.f32(float %89)
  %91 = tail call i64 @llvm.smax.i64(i64 %90, i64 -2147483648)
  %.0.i72 = tail call i64 @llvm.smin.i64(i64 %91, i64 2147483647)
  %92 = trunc nsw i64 %.0.i72 to i32
  store i32 %92, ptr %85, align 4, !tbaa !10
  %93 = icmp sgt i32 %10, 0
  br i1 %93, label %.lr.ph.preheader, label %.loopexit

.lr.ph.preheader:                                 ; preds = %76
  %94 = getelementptr inbounds nuw i8, ptr %23, i64 32
  br label %.lr.ph

.lr.ph92.preheader:                               ; preds = %.lr.ph
  %95 = zext nneg i32 %10 to i64
  %96 = getelementptr inbounds nuw i32, ptr %23, i64 %95
  %97 = getelementptr inbounds nuw i8, ptr %96, i64 32
  br label %.lr.ph92

.lr.ph:                                           ; preds = %.lr.ph.preheader, %.lr.ph
  %.06088 = phi i32 [ %107, %.lr.ph ], [ 0, %.lr.ph.preheader ]
  %.187 = phi ptr [ %106, %.lr.ph ], [ %94, %.lr.ph.preheader ]
  %98 = uitofp nneg i32 %.06088 to double
  %99 = fmul nsz double %27, %98
  %100 = tail call nsz double @llvm.cos.f64(double %99)
  %101 = fmul nsz double %100, 0x41E0000000000000
  %102 = fptrunc nsz double %101 to float
  %103 = tail call i64 @llvm.llrint.i64.f32(float %102)
  %104 = tail call i64 @llvm.smax.i64(i64 %103, i64 -2147483648)
  %.0.i70 = tail call i64 @llvm.smin.i64(i64 %104, i64 2147483647)
  %105 = trunc nsw i64 %.0.i70 to i32
  %106 = getelementptr inbounds nuw i8, ptr %.187, i64 4
  store i32 %105, ptr %.187, align 4, !tbaa !10
  %107 = add nuw nsw i32 %.06088, 1
  %exitcond.not = icmp eq i32 %107, %10
  br i1 %exitcond.not, label %.lr.ph92.preheader, label %.lr.ph, !llvm.loop !138

.lr.ph92:                                         ; preds = %.lr.ph92.preheader, %.lr.ph92
  %.090 = phi i32 [ %122, %.lr.ph92 ], [ 0, %.lr.ph92.preheader ]
  %.289 = phi ptr [ %121, %.lr.ph92 ], [ %97, %.lr.ph92.preheader ]
  %108 = shl nsw i32 %.090, 2
  %109 = sub nsw i32 %4, %108
  %110 = sitofp i32 %109 to double
  %111 = fmul nsz double %110, 2.500000e-01
  %112 = fmul nsz double %27, %111
  %113 = tail call nsz double @llvm.cos.f64(double %112)
  %114 = fmul nsz double %113, 0x41E0000000000000
  %115 = fptrunc nsz double %114 to float
  %116 = tail call i64 @llvm.llrint.i64.f32(float %115)
  %117 = tail call i64 @llvm.smax.i64(i64 %116, i64 -2147483648)
  %.0.i = tail call i64 @llvm.smin.i64(i64 %117, i64 2147483647)
  %118 = sub nsw i64 0, %.0.i
  %119 = select i1 %.not67, i64 %118, i64 %.0.i
  %120 = trunc i64 %119 to i32
  %121 = getelementptr inbounds nuw i8, ptr %.289, i64 4
  store i32 %120, ptr %.289, align 4, !tbaa !10
  %122 = add nuw nsw i32 %.090, 1
  %exitcond93.not = icmp eq i32 %122, %10
  br i1 %exitcond93.not, label %.loopexit, label %.lr.ph92, !llvm.loop !139

.loopexit:                                        ; preds = %.lr.ph92, %76, %18, %7
  %.061 = phi i32 [ %17, %7 ], [ -12, %18 ], [ 0, %76 ], [ 0, %.lr.ph92 ]
  ret i32 %.061
}